; ModuleID = 'source-C-CXX/9/2094.c'
source_filename = "source-C-CXX/9/2094.c"
target datalayout = "e-m:e-p270:32:32-p271:32:32-p272:64:64-i64:64-f80:128-n8:16:32:64-S128"
target triple = "x86_64-pc-linux-gnu"

@.str = private unnamed_addr constant [3 x i8] c"%d\00", align 1
@n = dso_local global i32 0, align 4
@h = dso_local global [25 x i32] zeroinitializer, align 16

; Function Attrs: nofree nounwind sspstrong uwtable
define dso_local i32 @main() local_unnamed_addr #0 {
  %1 = tail call i32 (i8*, ...) @__isoc99_scanf(i8* getelementptr inbounds ([3 x i8], [3 x i8]* @.str, i64 0, i64 0), i32* nonnull @n)
  %2 = load i32, i32* @n, align 4, !tbaa !5
  %3 = icmp sgt i32 %2, 0
  br i1 %3, label %4, label %12

4:                                                ; preds = %0, %4
  %5 = phi i64 [ %8, %4 ], [ 0, %0 ]
  %6 = getelementptr inbounds [25 x i32], [25 x i32]* @h, i64 0, i64 %5
  %7 = tail call i32 (i8*, ...) @__isoc99_scanf(i8* getelementptr inbounds ([3 x i8], [3 x i8]* @.str, i64 0, i64 0), i32* nonnull %6)
  %8 = add nuw nsw i64 %5, 1
  %9 = load i32, i32* @n, align 4, !tbaa !5
  %10 = sext i32 %9 to i64
  %11 = icmp slt i64 %8, %10
  br i1 %11, label %4, label %12, !llvm.loop !9

12:                                               ; preds = %4, %0
  %13 = tail call i32 @max(i32 50000, i32 0)
  %14 = tail call i32 (i8*, ...) @printf(i8* nonnull dereferenceable(1) getelementptr inbounds ([3 x i8], [3 x i8]* @.str, i64 0, i64 0), i32 %13)
  ret i32 0
}

; Function Attrs: nofree nounwind
declare noundef i32 @__isoc99_scanf(i8* nocapture noundef readonly, ...) local_unnamed_addr #1

; Function Attrs: nofree nosync nounwind readonly sspstrong uwtable
define dso_local i32 @max(i32 %0, i32 %1) local_unnamed_addr #2 {
  %3 = sext i32 %1 to i64
  br label %4

4:                                                ; preds = %4, %2
  %5 = phi i64 [ %9, %4 ], [ %3, %2 ]
  %6 = getelementptr inbounds [25 x i32], [25 x i32]* @h, i64 0, i64 %5
  %7 = load i32, i32* %6, align 4, !tbaa !5
  %8 = icmp sgt i32 %7, %0
  %9 = add i64 %5, 1
  br i1 %8, label %4, label %10, !llvm.loop !11

10:                                               ; preds = %4
  %11 = trunc i64 %5 to i32
  %12 = load i32, i32* @n, align 4, !tbaa !5
  %13 = icmp eq i32 %12, %11
  br i1 %13, label %14, label %16

14:                                               ; preds = %10, %16
  %15 = phi i32 [ %22, %16 ], [ 0, %10 ]
  ret i32 %15

16:                                               ; preds = %10
  %17 = add nsw i32 %11, 1
  %18 = tail call i32 @max(i32 %0, i32 %17)
  %19 = tail call i32 @max(i32 %7, i32 %17)
  %20 = add nsw i32 %19, 1
  %21 = icmp sgt i32 %18, %20
  %22 = select i1 %21, i32 %18, i32 %20
  br label %14
}

; Function Attrs: nofree nounwind
declare noundef i32 @printf(i8* nocapture noundef readonly, ...) local_unnamed_addr #1


!llvm.module.flags = !{!0, !1, !2, !3}
!llvm.ident = !{!4}

!0 = !{i32 1, !"wchar_size", i32 4}
!1 = !{i32 7, !"PIC Level", i32 2}
!2 = !{i32 7, !"PIE Level", i32 2}
!3 = !{i32 7, !"uwtable", i32 1}
!4 = !{!"clang version 13.0.0"}
!5 = !{!6, !6, i64 0}
!6 = !{!"int", !7, i64 0}
!7 = !{!"omnipotent char", !8, i64 0}
!8 = !{!"Simple C/C++ TBAA"}
!9 = distinct !{!9, !10}
!10 = !{!"llvm.loop.mustprogress"}
!11 = distinct !{!11, !10}
